target datalayout = "e-m:e-p270:32:32-p271:32:32-p272:64:64-i64:64-i128:128-f80:128-n8:16:32:64-S128"
target triple = "x86_64-pc-linux-gnu"

%"class.base::FileEnumerator" = type { %"class.std::vector", i64, %"class.base::FilePath", i8, i32, %"class.std::__cxx11::basic_string", %"class.std::stack" }
%"class.std::vector" = type { %"struct.std::_Vector_base" }
%"struct.std::_Vector_base" = type { %"struct.std::_Vector_base<base::FileEnumerator::FileInfo, std::allocator<base::FileEnumerator::FileInfo>>::_Vector_impl" }
%"struct.std::_Vector_base<base::FileEnumerator::FileInfo, std::allocator<base::FileEnumerator::FileInfo>>::_Vector_impl" = type { %"struct.std::_Vector_base<base::FileEnumerator::FileInfo, std::allocator<base::FileEnumerator::FileInfo>>::_Vector_impl_data" }
%"struct.std::_Vector_base<base::FileEnumerator::FileInfo, std::allocator<base::FileEnumerator::FileInfo>>::_Vector_impl_data" = type { ptr, ptr, ptr }
%"class.base::FilePath" = type { %"class.std::__cxx11::basic_string" }
%"class.std::__cxx11::basic_string" = type { %"struct.std::__cxx11::basic_string<char>::_Alloc_hider", i64, %union.anon }
%"struct.std::__cxx11::basic_string<char>::_Alloc_hider" = type { ptr }
%union.anon = type { i64, [8 x i8] }
%"class.std::stack" = type { %"class.std::deque" }
%"class.std::deque" = type { %"class.std::_Deque_base" }
%"class.std::_Deque_base" = type { %"struct.std::_Deque_base<base::FilePath, std::allocator<base::FilePath>>::_Deque_impl" }
%"struct.std::_Deque_base<base::FilePath, std::allocator<base::FilePath>>::_Deque_impl" = type { %"struct.std::_Deque_base<base::FilePath, std::allocator<base::FilePath>>::_Deque_impl_data" }
%"struct.std::_Deque_base<base::FilePath, std::allocator<base::FilePath>>::_Deque_impl_data" = type { ptr, i64, %"struct.std::_Deque_iterator", %"struct.std::_Deque_iterator" }
%"struct.std::_Deque_iterator" = type { ptr, ptr, ptr, ptr }
%"class.base::FileEnumerator::FileInfo" = type { %struct.stat, %"class.base::FilePath" }
%struct.stat = type { i64, i64, i64, i32, i32, i32, i32, i64, i64, i64, i64, %struct.timespec, %struct.timespec, %struct.timespec, [3 x i64] }
%struct.timespec = type { i64, i64 }

; Function Attrs: mustprogress nounwind uwtable
define available_externally noundef i64 @_ZNKSt7__cxx1112basic_stringIcSt11char_traitsIcESaIcEE4sizeEv(ptr noundef nonnull align 8 dereferenceable(32) %0) #3 align 2 {
  %2 = alloca ptr, align 8
  store ptr %0, ptr %2, align 8, !tbaa !17
  %3 = load ptr, ptr %2, align 8
  %4 = getelementptr inbounds nuw %"class.std::__cxx11::basic_string", ptr %3, i32 0, i32 1
  %5 = load i64, ptr %4, align 8, !tbaa !32
  ret i64 %5
}

; Function Attrs: mustprogress nounwind uwtable
define available_externally noundef zeroext i1 @_ZNKSt7__cxx1112basic_stringIcSt11char_traitsIcESaIcEE5emptyEv(ptr noundef nonnull align 8 dereferenceable(32) %0) #3 align 2 {
  %2 = alloca ptr, align 8
  store ptr %0, ptr %2, align 8, !tbaa !17
  %3 = load ptr, ptr %2, align 8
  %4 = call noundef i64 @_ZNKSt7__cxx1112basic_stringIcSt11char_traitsIcESaIcEE4sizeEv(ptr noundef nonnull align 8 dereferenceable(32) %3) #14
  %5 = icmp eq i64 %4, 0
  ret i1 %5
}

; Function Attrs: mustprogress nounwind uwtable
define linkonce_odr noundef zeroext i1 @_ZNK4base8FilePath5emptyEv(ptr noundef nonnull align 8 dereferenceable(32) %0) #3 comdat align 2 {
  %2 = alloca ptr, align 8
  store ptr %0, ptr %2, align 8, !tbaa !3
  %3 = load ptr, ptr %2, align 8
  %4 = getelementptr inbounds nuw %"class.base::FilePath", ptr %3, i32 0, i32 0
  %5 = call noundef zeroext i1 @_ZNKSt7__cxx1112basic_stringIcSt11char_traitsIcESaIcEE5emptyEv(ptr noundef nonnull align 8 dereferenceable(32) %4) #14
  ret i1 %5
}

; Function Attrs: mustprogress uwtable
define noundef i64 @_ZN4base20ComputeDirectorySizeERKNS_8FilePathE(ptr noundef nonnull align 8 dereferenceable(32) %0) #0 personality ptr @__gxx_personality_v0 {
  %2 = alloca ptr, align 8
  %3 = alloca i64, align 8
  %4 = alloca %"class.base::FileEnumerator", align 8
  %5 = alloca %"class.base::FilePath", align 8
  %6 = alloca ptr, align 8
  %7 = alloca i32, align 4
  %8 = alloca %"class.base::FileEnumerator::FileInfo", align 8
  store ptr %0, ptr %2, align 8, !tbaa !3
  call void @llvm.lifetime.start.p0(i64 8, ptr %3) #14
  store i64 0, ptr %3, align 8, !tbaa !8
  call void @llvm.lifetime.start.p0(i64 184, ptr %4) #14
  %9 = load ptr, ptr %2, align 8, !tbaa !3
  call void @_ZN4base14FileEnumeratorC1ERKNS_8FilePathEbi(ptr noundef nonnull align 8 dereferenceable(184) %4, ptr noundef nonnull align 8 dereferenceable(32) %9, i1 noundef zeroext true, i32 noundef 1)
  br label %10

10:                                               ; preds = %18, %1
  call void @llvm.lifetime.start.p0(i64 32, ptr %5) #14
  invoke void @_ZN4base14FileEnumerator4NextEv(ptr dead_on_unwind writable sret(%"class.base::FilePath") align 8 %5, ptr noundef nonnull align 8 dereferenceable(184) %4)
          to label %11 unwind label %21

11:                                               ; preds = %10
  %12 = invoke noundef zeroext i1 @_ZNK4base8FilePath5emptyEv(ptr noundef nonnull align 8 dereferenceable(32) %5)
          to label %13 unwind label %25

13:                                               ; preds = %11
  %14 = xor i1 %12, true
  call void @_ZN4base8FilePathD1Ev(ptr noundef nonnull align 8 dereferenceable(32) %5) #14
  call void @llvm.lifetime.end.p0(i64 32, ptr %5) #14
  br i1 %14, label %15, label %39

15:                                               ; preds = %13
  call void @llvm.lifetime.start.p0(i64 176, ptr %8) #14
  invoke void @_ZNK4base14FileEnumerator7GetInfoEv(ptr dead_on_unwind writable sret(%"class.base::FileEnumerator::FileInfo") align 8 %8, ptr noundef nonnull align 8 dereferenceable(184) %4)
          to label %16 unwind label %30

16:                                               ; preds = %15
  %17 = invoke noundef i64 @_ZNK4base14FileEnumerator8FileInfo7GetSizeEv(ptr noundef nonnull align 8 dereferenceable(176) %8)
          to label %18 unwind label %34

18:                                               ; preds = %16
  %19 = load i64, ptr %3, align 8, !tbaa !8
  %20 = add nsw i64 %19, %17
  store i64 %20, ptr %3, align 8, !tbaa !8
  call void @_ZN4base14FileEnumerator8FileInfoD1Ev(ptr noundef nonnull align 8 dereferenceable(176) %8) #14
  call void @llvm.lifetime.end.p0(i64 176, ptr %8) #14
  br label %10, !llvm.loop !10

21:                                               ; preds = %10
  %22 = landingpad { ptr, i32 }
          cleanup
  %23 = extractvalue { ptr, i32 } %22, 0
  store ptr %23, ptr %6, align 8
  %24 = extractvalue { ptr, i32 } %22, 1
  store i32 %24, ptr %7, align 4
  br label %29

25:                                               ; preds = %11
  %26 = landingpad { ptr, i32 }
          cleanup
  %27 = extractvalue { ptr, i32 } %26, 0
  store ptr %27, ptr %6, align 8
  %28 = extractvalue { ptr, i32 } %26, 1
  store i32 %28, ptr %7, align 4
  call void @_ZN4base8FilePathD1Ev(ptr noundef nonnull align 8 dereferenceable(32) %5) #14
  br label %29

29:                                               ; preds = %25, %21
  call void @llvm.lifetime.end.p0(i64 32, ptr %5) #14
  br label %41

30:                                               ; preds = %15
  %31 = landingpad { ptr, i32 }
          cleanup
  %32 = extractvalue { ptr, i32 } %31, 0
  store ptr %32, ptr %6, align 8
  %33 = extractvalue { ptr, i32 } %31, 1
  store i32 %33, ptr %7, align 4
  br label %38

34:                                               ; preds = %16
  %35 = landingpad { ptr, i32 }
          cleanup
  %36 = extractvalue { ptr, i32 } %35, 0
  store ptr %36, ptr %6, align 8
  %37 = extractvalue { ptr, i32 } %35, 1
  store i32 %37, ptr %7, align 4
  call void @_ZN4base14FileEnumerator8FileInfoD1Ev(ptr noundef nonnull align 8 dereferenceable(176) %8) #14
  br label %38

38:                                               ; preds = %34, %30
  call void @llvm.lifetime.end.p0(i64 176, ptr %8) #14
  br label %41

39:                                               ; preds = %13
  %40 = load i64, ptr %3, align 8, !tbaa !8
  call void @_ZN4base14FileEnumeratorD1Ev(ptr noundef nonnull align 8 dereferenceable(184) %4) #14
  call void @llvm.lifetime.end.p0(i64 184, ptr %4) #14
  call void @llvm.lifetime.end.p0(i64 8, ptr %3) #14
  ret i64 %40

41:                                               ; preds = %38, %29
  call void @_ZN4base14FileEnumeratorD1Ev(ptr noundef nonnull align 8 dereferenceable(184) %4) #14
  call void @llvm.lifetime.end.p0(i64 184, ptr %4) #14
  call void @llvm.lifetime.end.p0(i64 8, ptr %3) #14
  br label %42

42:                                               ; preds = %41
  %43 = load ptr, ptr %6, align 8
  %44 = load i32, ptr %7, align 4
  %45 = insertvalue { ptr, i32 } poison, ptr %43, 0
  %46 = insertvalue { ptr, i32 } %45, i32 %44, 1
  resume { ptr, i32 } %46
}