; Function Attrs: mustprogress uwtable
define noundef i64 @_ZN4base20ComputeDirectorySizeERKNS_8FilePathE(ptr noundef nonnull align 8 dereferenceable(32) %0) local_unnamed_addr #0 personality ptr @__gxx_personality_v0 {
  %2 = alloca %"class.base::FileEnumerator", align 8
  %3 = alloca %"class.base::FilePath", align 8
  %4 = alloca %"class.base::FileEnumerator::FileInfo", align 8
  call void @llvm.lifetime.start.p0(i64 184, ptr nonnull %2) #16
  call void @_ZN4base14FileEnumeratorC1ERKNS_8FilePathEbi(ptr noundef nonnull align 8 dereferenceable(184) %2, ptr noundef nonnull align 8 dereferenceable(32) %0, i1 noundef zeroext true, i32 noundef 1)
  %5 = getelementptr inbounds nuw i8, ptr %3, i64 8
  br label %6

6:                                                ; preds = %13, %1
  %.06 = phi i64 [ 0, %1 ], [ %14, %13 ]
  call void @llvm.lifetime.start.p0(i64 32, ptr nonnull %3) #16
  invoke void @_ZN4base14FileEnumerator4NextEv(ptr dead_on_unwind nonnull writable sret(%"class.base::FilePath") align 8 %3, ptr noundef nonnull align 8 dereferenceable(184) %2)
          to label %7 unwind label %15

7:                                                ; preds = %6
  %8 = load i64, ptr %5, align 8, !tbaa !3
  %9 = icmp eq i64 %8, 0
  call void @_ZN4base8FilePathD1Ev(ptr noundef nonnull align 8 dereferenceable(32) %3) #16
  call void @llvm.lifetime.end.p0(i64 32, ptr nonnull %3) #16
  br i1 %9, label %22, label %10

10:                                               ; preds = %7
  call void @llvm.lifetime.start.p0(i64 176, ptr nonnull %4) #16
  invoke void @_ZNK4base14FileEnumerator7GetInfoEv(ptr dead_on_unwind nonnull writable sret(%"class.base::FileEnumerator::FileInfo") align 8 %4, ptr noundef nonnull align 8 dereferenceable(184) %2)
          to label %11 unwind label %17

11:                                               ; preds = %10
  %12 = invoke noundef i64 @_ZNK4base14FileEnumerator8FileInfo7GetSizeEv(ptr noundef nonnull align 8 dereferenceable(176) %4)
          to label %13 unwind label %19

13:                                               ; preds = %11
  %14 = add nsw i64 %12, %.06
  call void @_ZN4base14FileEnumerator8FileInfoD1Ev(ptr noundef nonnull align 8 dereferenceable(176) %4) #16
  call void @llvm.lifetime.end.p0(i64 176, ptr nonnull %4) #16
  br label %6, !llvm.loop !11

15:                                               ; preds = %6
  %16 = landingpad { ptr, i32 }
          cleanup
  call void @llvm.lifetime.end.p0(i64 32, ptr nonnull %3) #16
  br label %23

17:                                               ; preds = %10
  %18 = landingpad { ptr, i32 }
          cleanup
  br label %21

19:                                               ; preds = %11
  %20 = landingpad { ptr, i32 }
          cleanup
  call void @_ZN4base14FileEnumerator8FileInfoD1Ev(ptr noundef nonnull align 8 dereferenceable(176) %4) #16
  br label %21

21:                                               ; preds = %19, %17
  %.pn = phi { ptr, i32 } [ %20, %19 ], [ %18, %17 ]
  call void @llvm.lifetime.end.p0(i64 176, ptr nonnull %4) #16
  br label %23

22:                                               ; preds = %7
  call void @_ZN4base14FileEnumeratorD1Ev(ptr noundef nonnull align 8 dereferenceable(184) %2) #16
  call void @llvm.lifetime.end.p0(i64 184, ptr nonnull %2) #16
  ret i64 %.06

23:                                               ; preds = %21, %15
  %.pn.pn = phi { ptr, i32 } [ %.pn, %21 ], [ %16, %15 ]
  call void @_ZN4base14FileEnumeratorD1Ev(ptr noundef nonnull align 8 dereferenceable(184) %2) #16
  call void @llvm.lifetime.end.p0(i64 184, ptr nonnull %2) #16
  resume { ptr, i32 } %.pn.pn
}